target datalayout = "e-m:e-p270:32:32-p271:32:32-p272:64:64-i64:64-i128:128-f80:128-n8:16:32:64-S128"
target triple = "x86_64-unknown-linux-gnu"

%"class.rocksdb::JemallocNodumpAllocator" = type <{ %"class.rocksdb::BaseMemoryAllocator", %"struct.rocksdb::JemallocAllocatorOptions", %"class.std::vector.19", %"class.rocksdb::ThreadLocalPtr", [4 x i8], %"class.std::vector.24", i8, [7 x i8] }>
%"class.rocksdb::BaseMemoryAllocator" = type { %"class.rocksdb::MemoryAllocator" }
%"class.rocksdb::MemoryAllocator" = type { %"class.rocksdb::Customizable" }
%"class.rocksdb::Customizable" = type { %"class.rocksdb::Configurable" }
%"class.rocksdb::Configurable" = type { ptr, %"class.std::vector" }
%"class.std::vector" = type { %"struct.std::_Vector_base" }
%"struct.std::_Vector_base" = type { %"struct.std::_Vector_base<rocksdb::Configurable::RegisteredOptions, std::allocator<rocksdb::Configurable::RegisteredOptions>>::_Vector_impl" }
%"struct.std::_Vector_base<rocksdb::Configurable::RegisteredOptions, std::allocator<rocksdb::Configurable::RegisteredOptions>>::_Vector_impl" = type { %"struct.std::_Vector_base<rocksdb::Configurable::RegisteredOptions, std::allocator<rocksdb::Configurable::RegisteredOptions>>::_Vector_impl_data" }
%"struct.std::_Vector_base<rocksdb::Configurable::RegisteredOptions, std::allocator<rocksdb::Configurable::RegisteredOptions>>::_Vector_impl_data" = type { ptr, ptr, ptr }
%"struct.rocksdb::JemallocAllocatorOptions" = type { i8, i64, i64, i64 }
%"class.std::vector.19" = type { %"struct.std::_Vector_base.20" }
%"struct.std::_Vector_base.20" = type { %"struct.std::_Vector_base<std::unique_ptr<extent_hooks_s>, std::allocator<std::unique_ptr<extent_hooks_s>>>::_Vector_impl" }
%"struct.std::_Vector_base<std::unique_ptr<extent_hooks_s>, std::allocator<std::unique_ptr<extent_hooks_s>>>::_Vector_impl" = type { %"struct.std::_Vector_base<std::unique_ptr<extent_hooks_s>, std::allocator<std::unique_ptr<extent_hooks_s>>>::_Vector_impl_data" }
%"struct.std::_Vector_base<std::unique_ptr<extent_hooks_s>, std::allocator<std::unique_ptr<extent_hooks_s>>>::_Vector_impl_data" = type { ptr, ptr, ptr }
%"class.rocksdb::ThreadLocalPtr" = type { i32 }
%"class.std::vector.24" = type { %"struct.std::_Vector_base.25" }
%"struct.std::_Vector_base.25" = type { %"struct.std::_Vector_base<unsigned int, std::allocator<unsigned int>>::_Vector_impl" }
%"struct.std::_Vector_base<unsigned int, std::allocator<unsigned int>>::_Vector_impl" = type { %"struct.std::_Vector_base<unsigned int, std::allocator<unsigned int>>::_Vector_impl_data" }
%"struct.std::_Vector_base<unsigned int, std::allocator<unsigned int>>::_Vector_impl_data" = type { ptr, ptr, ptr }

@.str.14 = private unnamed_addr constant [14 x i8] c"tcache.create\00", align 1

; Function Attrs: mustprogress uwtable
define noundef i32 @_ZN7rocksdb23JemallocNodumpAllocator22GetThreadSpecificCacheEm(ptr noundef nonnull align 8 dereferenceable(121) %this, i64 noundef %size) #2 align 2 {
entry:
  %retval = alloca i32, align 4
  %this.addr = alloca ptr, align 8
  %size.addr = alloca i64, align 8
  %tcache_index = alloca ptr, align 8
  %tcache_index_size = alloca i64, align 8
  %ret = alloca i32, align 4
  store ptr %this, ptr %this.addr, align 8
  store i64 %size, ptr %size.addr, align 8
  %this1 = load ptr, ptr %this.addr, align 8
  %options_ = getelementptr inbounds %"class.rocksdb::JemallocNodumpAllocator", ptr %this1, i32 0, i32 1
  %limit_tcache_size = getelementptr inbounds %"struct.rocksdb::JemallocAllocatorOptions", ptr %options_, i32 0, i32 0
  %0 = load i8, ptr %limit_tcache_size, align 8
  %tobool = trunc i8 %0 to i1
  br i1 %tobool, label %land.lhs.true, label %if.end

land.lhs.true:                                    ; preds = %entry
  %1 = load i64, ptr %size.addr, align 8
  %options_2 = getelementptr inbounds %"class.rocksdb::JemallocNodumpAllocator", ptr %this1, i32 0, i32 1
  %tcache_size_lower_bound = getelementptr inbounds %"struct.rocksdb::JemallocAllocatorOptions", ptr %options_2, i32 0, i32 1
  %2 = load i64, ptr %tcache_size_lower_bound, align 8
  %cmp = icmp ule i64 %1, %2
  br i1 %cmp, label %if.then, label %lor.lhs.false

lor.lhs.false:                                    ; preds = %land.lhs.true
  %3 = load i64, ptr %size.addr, align 8
  %options_3 = getelementptr inbounds %"class.rocksdb::JemallocNodumpAllocator", ptr %this1, i32 0, i32 1
  %tcache_size_upper_bound = getelementptr inbounds %"struct.rocksdb::JemallocAllocatorOptions", ptr %options_3, i32 0, i32 2
  %4 = load i64, ptr %tcache_size_upper_bound, align 8
  %cmp4 = icmp ugt i64 %3, %4
  br i1 %cmp4, label %if.then, label %if.end

if.then:                                          ; preds = %lor.lhs.false, %land.lhs.true
  store i32 256, ptr %retval, align 4
  br label %return

if.end:                                           ; preds = %lor.lhs.false, %entry
  %tcache_ = getelementptr inbounds %"class.rocksdb::JemallocNodumpAllocator", ptr %this1, i32 0, i32 3
  %call = call noundef ptr @_ZNK7rocksdb14ThreadLocalPtr3GetEv(ptr noundef nonnull align 4 dereferenceable(4) %tcache_)
  store ptr %call, ptr %tcache_index, align 8
  %5 = load ptr, ptr %tcache_index, align 8
  %cmp5 = icmp eq ptr %5, null
  br i1 %cmp5, label %if.then6, label %if.end13

if.then6:                                         ; preds = %if.end
  %call7 = call noalias noundef nonnull ptr @_Znwm(i64 noundef 4) #21
  store i32 0, ptr %call7, align 4
  store ptr %call7, ptr %tcache_index, align 8
  store i64 4, ptr %tcache_index_size, align 8
  %6 = load ptr, ptr %tcache_index, align 8
  %call8 = call i32 @mallctl(ptr noundef @.str.14, ptr noundef %6, ptr noundef %tcache_index_size, ptr noundef null, i64 noundef 0) #4
  store i32 %call8, ptr %ret, align 4
  %7 = load i32, ptr %ret, align 4
  %cmp9 = icmp ne i32 %7, 0
  br i1 %cmp9, label %if.then10, label %if.end11

if.then10:                                        ; preds = %if.then6
  %8 = load ptr, ptr %tcache_index, align 8
  %isnull = icmp eq ptr %8, null
  br i1 %isnull, label %delete.end, label %delete.notnull

delete.notnull:                                   ; preds = %if.then10
  call void @_ZdlPv(ptr noundef %8) #18
  br label %delete.end

delete.end:                                       ; preds = %delete.notnull, %if.then10
  store i32 256, ptr %retval, align 4
  br label %return

if.end11:                                         ; preds = %if.then6
  %tcache_12 = getelementptr inbounds %"class.rocksdb::JemallocNodumpAllocator", ptr %this1, i32 0, i32 3
  %9 = load ptr, ptr %tcache_index, align 8
  call void @_ZN7rocksdb14ThreadLocalPtr5ResetEPv(ptr noundef nonnull align 4 dereferenceable(4) %tcache_12, ptr noundef %9)
  br label %if.end13

if.end13:                                         ; preds = %if.end11, %if.end
  %10 = load ptr, ptr %tcache_index, align 8
  %11 = load i32, ptr %10, align 4
  %add = add i32 %11, 2
  %shl = shl i32 %add, 8
  store i32 %shl, ptr %retval, align 4
  br label %return

return:                                           ; preds = %if.end13, %delete.end, %if.then
  %12 = load i32, ptr %retval, align 4
  ret i32 %12
}