; Function Attrs: mustprogress uwtable
define noundef i32 @_ZN7rocksdb23JemallocNodumpAllocator22GetThreadSpecificCacheEm(ptr noundef nonnull align 8 dereferenceable(121) %this, i64 noundef %size) local_unnamed_addr #1 align 2 {
entry:
  %tcache_index_size = alloca i64, align 8
  %options_ = getelementptr inbounds i8, ptr %this, i64 32
  %0 = load i8, ptr %options_, align 8
  %1 = and i8 %0, 1
  %tobool.not = icmp eq i8 %1, 0
  br i1 %tobool.not, label %if.end, label %land.lhs.true

land.lhs.true:                                    ; preds = %entry
  %tcache_size_lower_bound = getelementptr inbounds i8, ptr %this, i64 40
  %2 = load i64, ptr %tcache_size_lower_bound, align 8
  %cmp.not = icmp uge i64 %2, %size
  %tcache_size_upper_bound = getelementptr inbounds i8, ptr %this, i64 48
  %3 = load i64, ptr %tcache_size_upper_bound, align 8
  %cmp4 = icmp ult i64 %3, %size
  %or.cond = select i1 %cmp.not, i1 true, i1 %cmp4
  br i1 %or.cond, label %return, label %if.end

if.end:                                           ; preds = %land.lhs.true, %entry
  %tcache_ = getelementptr inbounds i8, ptr %this, i64 88
  %call = tail call noundef ptr @_ZNK7rocksdb14ThreadLocalPtr3GetEv(ptr noundef nonnull align 4 dereferenceable(4) %tcache_)
  %cmp5 = icmp eq ptr %call, null
  br i1 %cmp5, label %if.then6, label %if.end13

if.then6:                                         ; preds = %if.end
  %call7 = tail call noalias noundef nonnull dereferenceable(4) ptr @_Znwm(i64 noundef 4) #28
  store i32 0, ptr %call7, align 4
  store i64 4, ptr %tcache_index_size, align 8
  %call8 = call i32 @mallctl(ptr noundef nonnull @.str.14, ptr noundef nonnull %call7, ptr noundef nonnull %tcache_index_size, ptr noundef null, i64 noundef 0) #24
  %cmp9.not = icmp eq i32 %call8, 0
  br i1 %cmp9.not, label %if.end11, label %delete.notnull

delete.notnull:                                   ; preds = %if.then6
  call void @_ZdlPv(ptr noundef nonnull %call7) #26
  br label %return

if.end11:                                         ; preds = %if.then6
  call void @_ZN7rocksdb14ThreadLocalPtr5ResetEPv(ptr noundef nonnull align 4 dereferenceable(4) %tcache_, ptr noundef nonnull %call7)
  br label %if.end13

if.end13:                                         ; preds = %if.end11, %if.end
  %tcache_index.0 = phi ptr [ %call7, %if.end11 ], [ %call, %if.end ]
  %4 = load i32, ptr %tcache_index.0, align 4
  %add = shl i32 %4, 8
  %shl = add i32 %add, 512
  br label %return

return:                                           ; preds = %land.lhs.true, %if.end13, %delete.notnull
  %retval.0 = phi i32 [ 256, %delete.notnull ], [ %shl, %if.end13 ], [ 256, %land.lhs.true ]
  ret i32 %retval.0
}